; Function Attrs: mustprogress uwtable
define hidden void @_ZNK3smt10theory_sls8finalizeEv(ptr noundef nonnull align 8 dereferenceable(184) %0) local_unnamed_addr #4 align 2 {
  %2 = getelementptr inbounds nuw i8, ptr %0, i64 80
  %3 = load ptr, ptr %2, align 8, !tbaa !522
  %.not = icmp eq ptr %3, null
  br i1 %.not, label %17, label %4

4:                                                ; preds = %1
  %5 = getelementptr inbounds nuw i8, ptr %0, i64 72
  %6 = getelementptr inbounds nuw i8, ptr %0, i64 160
  tail call void @_ZN3sls10smt_plugin8finalizeER3refI5modelER10statistics(ptr noundef nonnull align 8 dereferenceable(3024) %3, ptr noundef nonnull align 8 dereferenceable(8) %5, ptr noundef nonnull align 8 dereferenceable(16) %6)
  %7 = load ptr, ptr %5, align 8, !tbaa !523
  %.not.i.i = icmp eq ptr %7, null
  br i1 %.not.i.i, label %_ZN3refI5modelEaSEPS0_.exit, label %8

8:                                                ; preds = %4
  %9 = getelementptr inbounds nuw i8, ptr %7, i64 16
  %10 = load i32, ptr %9, align 8, !tbaa !524
  %11 = add i32 %10, -1
  store i32 %11, ptr %9, align 8, !tbaa !524
  %12 = icmp eq i32 %11, 0
  br i1 %12, label %13, label %_ZN3refI5modelEaSEPS0_.exit

13:                                               ; preds = %8
  %14 = load ptr, ptr %7, align 8, !tbaa !504
  %15 = load ptr, ptr %14, align 8
  tail call void %15(ptr noundef nonnull align 8 dereferenceable(96) %7) #27
  tail call void @_ZN6memory10deallocateEPv(ptr noundef nonnull align 8 dereferenceable(96) %7)
  br label %_ZN3refI5modelEaSEPS0_.exit

_ZN3refI5modelEaSEPS0_.exit:                      ; preds = %4, %8, %13
  %16 = getelementptr inbounds nuw i8, ptr %0, i64 156
  store i8 0, ptr %16, align 4, !tbaa !532
  tail call void @llvm.memset.p0.i64(ptr noundef nonnull align 8 dereferenceable(16) %5, i8 0, i64 16, i1 false)
  br label %17

17:                                               ; preds = %1, %_ZN3refI5modelEaSEPS0_.exit
  ret void
}